target datalayout = "e-m:e-p270:32:32-p271:32:32-p272:64:64-i64:64-i128:128-f80:128-n8:16:32:64-S128"
target triple = "x86_64-pc-linux-gnu"

%struct.strbuf = type { i64, i64, ptr }
%struct.fsck_options = type { ptr, ptr, i32, i32, ptr, %struct.oidset, %struct.oidset, %struct.oidset, %struct.oidset, %struct.oidset, ptr }
%struct.oidset = type { %struct.kh_oid_set }
%struct.kh_oid_set = type { i32, i32, i32, i32, ptr, ptr, ptr }
%struct.repository = type { ptr, ptr, ptr, ptr, ptr, %struct.strmap, %struct.strmap, %struct.repo_path_cache, ptr, ptr, ptr, ptr, %struct.repo_settings, ptr, ptr, ptr, ptr, ptr, ptr, i32, i32, i32, ptr, ptr, i32, i32, i8 }
%struct.strmap = type { %struct.hashmap, ptr, i8 }
%struct.hashmap = type { ptr, ptr, ptr, i32, i32, i32, i32, i8 }
%struct.repo_path_cache = type { ptr, ptr, ptr, ptr, ptr, ptr, ptr }
%struct.repo_settings = type { i32, i32, i32, i32, i32, i32, i32, i32, i32, i32, i32, i32, ptr, i32, i32, i32, i32, i32, i32, i32, i64, i64, i64 }
%struct.git_hash_algo = type { ptr, i32, i64, i64, i64, ptr, ptr, ptr, ptr, ptr, ptr, ptr, ptr, ptr }
%union.git_hash_ctx = type { %struct.SHA1_CTX }
%struct.SHA1_CTX = type { i64, [5 x i32], [64 x i8], i32, i32, i32, i32, i32, ptr, [5 x i32], [5 x i32], [80 x i32], [80 x i32], [80 x [5 x i32]] }

@the_repository = external global ptr, align 8
@.str.76 = private unnamed_addr constant [7 x i8] c"%s %lu\00", align 1
@global_conv_flags_eol = external global i32, align 4
@__const.index_mem.nbuf = private unnamed_addr constant %struct.strbuf { i64 0, i64 0, ptr @strbuf_slopbuf }, align 8
@.str.102 = private unnamed_addr constant [36 x i8] c"refusing to create malformed object\00", align 1

; Function Attrs: nounwind uwtable
define internal void @hash_object_body(ptr noundef %0, ptr noundef %1, ptr noundef %2, i64 noundef %3, ptr noundef %4, ptr noundef %5, ptr noundef %6) #0 {
  %8 = alloca ptr, align 8
  %9 = alloca ptr, align 8
  %10 = alloca ptr, align 8
  %11 = alloca i64, align 8
  %12 = alloca ptr, align 8
  %13 = alloca ptr, align 8
  %14 = alloca ptr, align 8
  store ptr %0, ptr %8, align 8, !tbaa !41
  store ptr %1, ptr %9, align 8, !tbaa !4
  store ptr %2, ptr %10, align 8, !tbaa !9
  store i64 %3, ptr %11, align 8, !tbaa !10
  store ptr %4, ptr %12, align 8, !tbaa !14
  store ptr %5, ptr %13, align 8, !tbaa !12
  store ptr %6, ptr %14, align 8, !tbaa !171
  %15 = load ptr, ptr %8, align 8, !tbaa !41
  %16 = getelementptr inbounds nuw %struct.git_hash_algo, ptr %15, i32 0, i32 5
  %17 = load ptr, ptr %16, align 8, !tbaa !108
  %18 = load ptr, ptr %9, align 8, !tbaa !4
  call void %17(ptr noundef %18)
  %19 = load ptr, ptr %8, align 8, !tbaa !41
  %20 = getelementptr inbounds nuw %struct.git_hash_algo, ptr %19, i32 0, i32 7
  %21 = load ptr, ptr %20, align 8, !tbaa !109
  %22 = load ptr, ptr %9, align 8, !tbaa !4
  %23 = load ptr, ptr %13, align 8, !tbaa !12
  %24 = load ptr, ptr %14, align 8, !tbaa !171
  %25 = load i32, ptr %24, align 4, !tbaa !43
  %26 = sext i32 %25 to i64
  call void %21(ptr noundef %22, ptr noundef %23, i64 noundef %26)
  %27 = load ptr, ptr %8, align 8, !tbaa !41
  %28 = getelementptr inbounds nuw %struct.git_hash_algo, ptr %27, i32 0, i32 7
  %29 = load ptr, ptr %28, align 8, !tbaa !109
  %30 = load ptr, ptr %9, align 8, !tbaa !4
  %31 = load ptr, ptr %10, align 8, !tbaa !9
  %32 = load i64, ptr %11, align 8, !tbaa !10
  call void %29(ptr noundef %30, ptr noundef %31, i64 noundef %32)
  %33 = load ptr, ptr %8, align 8, !tbaa !41
  %34 = getelementptr inbounds nuw %struct.git_hash_algo, ptr %33, i32 0, i32 9
  %35 = load ptr, ptr %34, align 8, !tbaa !110
  %36 = load ptr, ptr %12, align 8, !tbaa !14
  %37 = load ptr, ptr %9, align 8, !tbaa !4
  call void %35(ptr noundef %36, ptr noundef %37)
  ret void
}

; Function Attrs: nounwind uwtable
define internal i32 @format_object_header_literally(ptr noundef %0, i64 noundef %1, ptr noundef %2, i64 noundef %3) #0 {
  %5 = alloca ptr, align 8
  %6 = alloca i64, align 8
  %7 = alloca ptr, align 8
  %8 = alloca i64, align 8
  store ptr %0, ptr %5, align 8, !tbaa !12
  store i64 %1, ptr %6, align 8, !tbaa !10
  store ptr %2, ptr %7, align 8, !tbaa !12
  store i64 %3, ptr %8, align 8, !tbaa !10
  %9 = load ptr, ptr %5, align 8, !tbaa !12
  %10 = load i64, ptr %6, align 8, !tbaa !10
  %11 = load ptr, ptr %7, align 8, !tbaa !12
  %12 = load i64, ptr %8, align 8, !tbaa !10
  %13 = call i32 (ptr, i64, ptr, ...) @xsnprintf(ptr noundef %9, i64 noundef %10, ptr noundef @.str.76, ptr noundef %11, i64 noundef %12)
  %14 = add nsw i32 %13, 1
  ret i32 %14
}

; Function Attrs: nounwind uwtable
define internal void @write_object_file_prepare_literally(ptr noundef %0, ptr noundef %1, i64 noundef %2, ptr noundef %3, ptr noundef %4, ptr noundef %5, ptr noundef %6) #0 {
  %8 = alloca ptr, align 8
  %9 = alloca ptr, align 8
  %10 = alloca i64, align 8
  %11 = alloca ptr, align 8
  %12 = alloca ptr, align 8
  %13 = alloca ptr, align 8
  %14 = alloca ptr, align 8
  %15 = alloca %union.git_hash_ctx, align 8
  store ptr %0, ptr %8, align 8, !tbaa !41
  store ptr %1, ptr %9, align 8, !tbaa !9
  store i64 %2, ptr %10, align 8, !tbaa !10
  store ptr %3, ptr %11, align 8, !tbaa !12
  store ptr %4, ptr %12, align 8, !tbaa !14
  store ptr %5, ptr %13, align 8, !tbaa !12
  store ptr %6, ptr %14, align 8, !tbaa !171
  call void @llvm.lifetime.start.p0(i64 2400, ptr %15) #14
  %16 = load ptr, ptr %13, align 8, !tbaa !12
  %17 = load ptr, ptr %14, align 8, !tbaa !171
  %18 = load i32, ptr %17, align 4, !tbaa !43
  %19 = sext i32 %18 to i64
  %20 = load ptr, ptr %11, align 8, !tbaa !12
  %21 = load i64, ptr %10, align 8, !tbaa !10
  %22 = call i32 @format_object_header_literally(ptr noundef %16, i64 noundef %19, ptr noundef %20, i64 noundef %21)
  %23 = load ptr, ptr %14, align 8, !tbaa !171
  store i32 %22, ptr %23, align 4, !tbaa !43
  %24 = load ptr, ptr %8, align 8, !tbaa !41
  %25 = load ptr, ptr %9, align 8, !tbaa !9
  %26 = load i64, ptr %10, align 8, !tbaa !10
  %27 = load ptr, ptr %12, align 8, !tbaa !14
  %28 = load ptr, ptr %13, align 8, !tbaa !12
  %29 = load ptr, ptr %14, align 8, !tbaa !171
  call void @hash_object_body(ptr noundef %24, ptr noundef %15, ptr noundef %25, i64 noundef %26, ptr noundef %27, ptr noundef %28, ptr noundef %29)
  call void @llvm.lifetime.end.p0(i64 2400, ptr %15) #14
  ret void
}

; Function Attrs: nounwind uwtable
define internal void @hash_object_file_literally(ptr noundef %0, ptr noundef %1, i64 noundef %2, ptr noundef %3, ptr noundef %4) #0 {
  %6 = alloca ptr, align 8
  %7 = alloca ptr, align 8
  %8 = alloca i64, align 8
  %9 = alloca ptr, align 8
  %10 = alloca ptr, align 8
  %11 = alloca [32 x i8], align 16
  %12 = alloca i32, align 4
  store ptr %0, ptr %6, align 8, !tbaa !41
  store ptr %1, ptr %7, align 8, !tbaa !9
  store i64 %2, ptr %8, align 8, !tbaa !10
  store ptr %3, ptr %9, align 8, !tbaa !12
  store ptr %4, ptr %10, align 8, !tbaa !14
  call void @llvm.lifetime.start.p0(i64 32, ptr %11) #14
  call void @llvm.lifetime.start.p0(i64 4, ptr %12) #14
  store i32 32, ptr %12, align 4, !tbaa !43
  %13 = load ptr, ptr %6, align 8, !tbaa !41
  %14 = load ptr, ptr %7, align 8, !tbaa !9
  %15 = load i64, ptr %8, align 8, !tbaa !10
  %16 = load ptr, ptr %9, align 8, !tbaa !12
  %17 = load ptr, ptr %10, align 8, !tbaa !14
  %18 = getelementptr inbounds [32 x i8], ptr %11, i64 0, i64 0
  call void @write_object_file_prepare_literally(ptr noundef %13, ptr noundef %14, i64 noundef %15, ptr noundef %16, ptr noundef %17, ptr noundef %18, ptr noundef %12)
  call void @llvm.lifetime.end.p0(i64 4, ptr %12) #14
  call void @llvm.lifetime.end.p0(i64 32, ptr %11) #14
  ret void
}

; Function Attrs: nounwind uwtable
define dso_local void @hash_object_file(ptr noundef %0, ptr noundef %1, i64 noundef %2, i32 noundef %3, ptr noundef %4) #0 {
  %6 = alloca ptr, align 8
  %7 = alloca ptr, align 8
  %8 = alloca i64, align 8
  %9 = alloca i32, align 4
  %10 = alloca ptr, align 8
  store ptr %0, ptr %6, align 8, !tbaa !41
  store ptr %1, ptr %7, align 8, !tbaa !9
  store i64 %2, ptr %8, align 8, !tbaa !10
  store i32 %3, ptr %9, align 4, !tbaa !43
  store ptr %4, ptr %10, align 8, !tbaa !14
  %11 = load ptr, ptr %6, align 8, !tbaa !41
  %12 = load ptr, ptr %7, align 8, !tbaa !9
  %13 = load i64, ptr %8, align 8, !tbaa !10
  %14 = load i32, ptr %9, align 4, !tbaa !43
  %15 = call ptr @type_name(i32 noundef %14)
  %16 = load ptr, ptr %10, align 8, !tbaa !14
  call void @hash_object_file_literally(ptr noundef %11, ptr noundef %12, i64 noundef %13, ptr noundef %15, ptr noundef %16)
  ret void
}

; Function Attrs: inlinehint nounwind uwtable
define internal i32 @write_object_file(ptr noundef %0, i64 noundef %1, i32 noundef %2, ptr noundef %3) #7 {
  %5 = alloca ptr, align 8
  %6 = alloca i64, align 8
  %7 = alloca i32, align 4
  %8 = alloca ptr, align 8
  store ptr %0, ptr %5, align 8, !tbaa !9
  store i64 %1, ptr %6, align 8, !tbaa !10
  store i32 %2, ptr %7, align 4, !tbaa !43
  store ptr %3, ptr %8, align 8, !tbaa !14
  %9 = load ptr, ptr %5, align 8, !tbaa !9
  %10 = load i64, ptr %6, align 8, !tbaa !10
  %11 = load i32, ptr %7, align 4, !tbaa !43
  %12 = load ptr, ptr %8, align 8, !tbaa !14
  %13 = call i32 @write_object_file_flags(ptr noundef %9, i64 noundef %10, i32 noundef %11, ptr noundef %12, ptr noundef null, i32 noundef 0)
  ret i32 %13
}

; Function Attrs: nounwind uwtable
define dso_local ptr @null_oid() #0 {
  %1 = load ptr, ptr @the_repository, align 8, !tbaa !19
  %2 = getelementptr inbounds nuw %struct.repository, ptr %1, i32 0, i32 17
  %3 = load ptr, ptr %2, align 8, !tbaa !21
  %4 = getelementptr inbounds nuw %struct.git_hash_algo, ptr %3, i32 0, i32 12
  %5 = load ptr, ptr %4, align 8, !tbaa !39
  ret ptr %5
}

; Function Attrs: nounwind uwtable
define internal i32 @get_conv_flags(i32 noundef %0) #0 {
  %2 = alloca i32, align 4
  %3 = alloca i32, align 4
  store i32 %0, ptr %3, align 4, !tbaa !43
  %4 = load i32, ptr %3, align 4, !tbaa !43
  %5 = and i32 %4, 4
  %6 = icmp ne i32 %5, 0
  br i1 %6, label %7, label %8

7:                                                ; preds = %1
  store i32 4, ptr %2, align 4
  br label %16

8:                                                ; preds = %1
  %9 = load i32, ptr %3, align 4, !tbaa !43
  %10 = and i32 %9, 1
  %11 = icmp ne i32 %10, 0
  br i1 %11, label %12, label %15

12:                                               ; preds = %8
  %13 = load i32, ptr @global_conv_flags_eol, align 4, !tbaa !43
  %14 = or i32 %13, 16
  store i32 %14, ptr %2, align 4
  br label %16

15:                                               ; preds = %8
  store i32 0, ptr %2, align 4
  br label %16

16:                                               ; preds = %15, %12, %7
  %17 = load i32, ptr %2, align 4
  ret i32 %17
}

; Function Attrs: nounwind uwtable
define internal i32 @index_mem(ptr noundef %0, ptr noundef %1, ptr noundef %2, i64 noundef %3, i32 noundef %4, ptr noundef %5, i32 noundef %6) #0 {
  %8 = alloca ptr, align 8
  %9 = alloca ptr, align 8
  %10 = alloca ptr, align 8
  %11 = alloca i64, align 8
  %12 = alloca i32, align 4
  %13 = alloca ptr, align 8
  %14 = alloca i32, align 4
  %15 = alloca %struct.strbuf, align 8
  %16 = alloca i32, align 4
  %17 = alloca i32, align 4
  %18 = alloca %struct.fsck_options, align 8
  store ptr %0, ptr %8, align 8, !tbaa !177
  store ptr %1, ptr %9, align 8, !tbaa !14
  store ptr %2, ptr %10, align 8, !tbaa !9
  store i64 %3, ptr %11, align 8, !tbaa !10
  store i32 %4, ptr %12, align 4, !tbaa !43
  store ptr %5, ptr %13, align 8, !tbaa !12
  store i32 %6, ptr %14, align 4, !tbaa !43
  call void @llvm.lifetime.start.p0(i64 24, ptr %15) #14
  call void @llvm.memcpy.p0.p0.i64(ptr align 8 %15, ptr align 8 @__const.index_mem.nbuf, i64 24, i1 false)
  call void @llvm.lifetime.start.p0(i64 4, ptr %16) #14
  store i32 0, ptr %16, align 4, !tbaa !43
  call void @llvm.lifetime.start.p0(i64 4, ptr %17) #14
  %19 = load i32, ptr %14, align 4, !tbaa !43
  %20 = and i32 %19, 1
  store i32 %20, ptr %17, align 4, !tbaa !43
  %21 = load i32, ptr %12, align 4, !tbaa !43
  %22 = icmp ne i32 %21, 0
  br i1 %22, label %24, label %23

23:                                               ; preds = %7
  store i32 3, ptr %12, align 4, !tbaa !43
  br label %24

24:                                               ; preds = %23, %7
  %25 = load i32, ptr %12, align 4, !tbaa !43
  %26 = icmp eq i32 %25, 3
  br i1 %26, label %27, label %45

27:                                               ; preds = %24
  %28 = load ptr, ptr %13, align 8, !tbaa !12
  %29 = icmp ne ptr %28, null
  br i1 %29, label %30, label %45

30:                                               ; preds = %27
  %31 = load ptr, ptr %8, align 8, !tbaa !177
  %32 = load ptr, ptr %13, align 8, !tbaa !12
  %33 = load ptr, ptr %10, align 8, !tbaa !9
  %34 = load i64, ptr %11, align 8, !tbaa !10
  %35 = load i32, ptr %14, align 4, !tbaa !43
  %36 = call i32 @get_conv_flags(i32 noundef %35)
  %37 = call i32 @convert_to_git(ptr noundef %31, ptr noundef %32, ptr noundef %33, i64 noundef %34, ptr noundef %15, i32 noundef %36)
  %38 = icmp ne i32 %37, 0
  br i1 %38, label %39, label %44

39:                                               ; preds = %30
  %40 = getelementptr inbounds nuw %struct.strbuf, ptr %15, i32 0, i32 2
  %41 = load ptr, ptr %40, align 8, !tbaa !56
  store ptr %41, ptr %10, align 8, !tbaa !9
  %42 = getelementptr inbounds nuw %struct.strbuf, ptr %15, i32 0, i32 1
  %43 = load i64, ptr %42, align 8, !tbaa !92
  store i64 %43, ptr %11, align 8, !tbaa !10
  br label %44

44:                                               ; preds = %39, %30
  br label %45

45:                                               ; preds = %44, %27, %24
  %46 = load i32, ptr %14, align 4, !tbaa !43
  %47 = and i32 %46, 2
  %48 = icmp ne i32 %47, 0
  br i1 %48, label %49, label %62

49:                                               ; preds = %45
  call void @llvm.lifetime.start.p0(i64 240, ptr %18) #14
  call void @llvm.memcpy.p0.p0.i64(ptr align 8 %18, ptr align 8 @__const.index_mem.opts, i64 240, i1 false)
  %50 = getelementptr inbounds nuw %struct.fsck_options, ptr %18, i32 0, i32 2
  store i32 1, ptr %50, align 8, !tbaa !228
  %51 = getelementptr inbounds nuw %struct.fsck_options, ptr %18, i32 0, i32 1
  store ptr @hash_format_check_report, ptr %51, align 8, !tbaa !233
  %52 = call ptr @null_oid()
  %53 = load i32, ptr %12, align 4, !tbaa !43
  %54 = load ptr, ptr %10, align 8, !tbaa !9
  %55 = load i64, ptr %11, align 8, !tbaa !10
  %56 = call i32 @fsck_buffer(ptr noundef %52, i32 noundef %53, ptr noundef %54, i64 noundef %55, ptr noundef %18)
  %57 = icmp ne i32 %56, 0
  br i1 %57, label %58, label %60

58:                                               ; preds = %49
  %59 = call ptr @_(ptr noundef @.str.102)
  call void (ptr, ...) @die(ptr noundef %59) #13
  unreachable

60:                                               ; preds = %49
  %61 = call i32 @fsck_finish(ptr noundef %18)
  call void @llvm.lifetime.end.p0(i64 240, ptr %18) #14
  br label %62

62:                                               ; preds = %60, %45
  %63 = load i32, ptr %17, align 4, !tbaa !43
  %64 = icmp ne i32 %63, 0
  br i1 %64, label %65, label %71

65:                                               ; preds = %62
  %66 = load ptr, ptr %10, align 8, !tbaa !9
  %67 = load i64, ptr %11, align 8, !tbaa !10
  %68 = load i32, ptr %12, align 4, !tbaa !43
  %69 = load ptr, ptr %9, align 8, !tbaa !14
  %70 = call i32 @write_object_file(ptr noundef %66, i64 noundef %67, i32 noundef %68, ptr noundef %69)
  store i32 %70, ptr %16, align 4, !tbaa !43
  br label %79

71:                                               ; preds = %62
  %72 = load ptr, ptr @the_repository, align 8, !tbaa !19
  %73 = getelementptr inbounds nuw %struct.repository, ptr %72, i32 0, i32 17
  %74 = load ptr, ptr %73, align 8, !tbaa !21
  %75 = load ptr, ptr %10, align 8, !tbaa !9
  %76 = load i64, ptr %11, align 8, !tbaa !10
  %77 = load i32, ptr %12, align 4, !tbaa !43
  %78 = load ptr, ptr %9, align 8, !tbaa !14
  call void @hash_object_file(ptr noundef %74, ptr noundef %75, i64 noundef %76, i32 noundef %77, ptr noundef %78)
  br label %79

79:                                               ; preds = %71, %65
  call void @strbuf_release(ptr noundef %15)
  %80 = load i32, ptr %16, align 4, !tbaa !43
  call void @llvm.lifetime.end.p0(i64 4, ptr %17) #14
  call void @llvm.lifetime.end.p0(i64 4, ptr %16) #14
  call void @llvm.lifetime.end.p0(i64 24, ptr %15) #14
  ret i32 %80
}