; Function Attrs: nounwind uwtable
define internal fastcc i32 @index_mem(ptr noundef %0, ptr noundef %1, ptr noundef %2, i64 noundef %3, i32 noundef %4, ptr noundef %5, i32 noundef %6) unnamed_addr #1 {
  %8 = alloca %union.git_hash_ctx, align 8
  %9 = alloca [32 x i8], align 16
  %10 = alloca %struct.strbuf, align 8
  %11 = alloca %struct.fsck_options, align 8
  call void @llvm.lifetime.start.p0(i64 24, ptr nonnull %10) #27
  call void @llvm.memcpy.p0.p0.i64(ptr noundef nonnull align 8 dereferenceable(24) %10, ptr noundef nonnull align 8 dereferenceable(24) @__const.index_mem.nbuf, i64 24, i1 false)
  %12 = and i32 %6, 1
  %.not = icmp eq i32 %4, 0
  %spec.store.select = select i1 %.not, i32 3, i32 %4
  %13 = icmp eq i32 %spec.store.select, 3
  %14 = icmp ne ptr %5, null
  %or.cond = and i1 %14, %13
  br i1 %or.cond, label %15, label %27

15:                                               ; preds = %7
  %16 = and i32 %6, 4
  %.not.i = icmp eq i32 %16, 0
  br i1 %.not.i, label %17, label %get_conv_flags.exit

17:                                               ; preds = %15
  %.not3.i = icmp eq i32 %12, 0
  br i1 %.not3.i, label %get_conv_flags.exit, label %18

18:                                               ; preds = %17
  %19 = load i32, ptr @global_conv_flags_eol, align 4, !tbaa !44
  %20 = or i32 %19, 16
  br label %get_conv_flags.exit

get_conv_flags.exit:                              ; preds = %15, %17, %18
  %.0.i = phi i32 [ %20, %18 ], [ 4, %15 ], [ 0, %17 ]
  %21 = call i32 @convert_to_git(ptr noundef %0, ptr noundef nonnull %5, ptr noundef %2, i64 noundef %3, ptr noundef nonnull %10, i32 noundef %.0.i) #27
  %.not26 = icmp eq i32 %21, 0
  br i1 %.not26, label %27, label %22

22:                                               ; preds = %get_conv_flags.exit
  %23 = getelementptr inbounds nuw i8, ptr %10, i64 16
  %24 = load ptr, ptr %23, align 8, !tbaa !49
  %25 = getelementptr inbounds nuw i8, ptr %10, i64 8
  %26 = load i64, ptr %25, align 8, !tbaa !53
  br label %27

27:                                               ; preds = %get_conv_flags.exit, %22, %7
  %.024 = phi i64 [ %26, %22 ], [ %3, %get_conv_flags.exit ], [ %3, %7 ]
  %.0 = phi ptr [ %24, %22 ], [ %2, %get_conv_flags.exit ], [ %2, %7 ]
  %28 = and i32 %6, 2
  %.not27 = icmp eq i32 %28, 0
  br i1 %.not27, label %42, label %29

29:                                               ; preds = %27
  call void @llvm.lifetime.start.p0(i64 240, ptr nonnull %11) #27
  call void @llvm.memcpy.p0.p0.i64(ptr noundef nonnull align 8 dereferenceable(240) %11, ptr noundef nonnull align 8 dereferenceable(240) @__const.index_mem.opts, i64 240, i1 false)
  %30 = getelementptr inbounds nuw i8, ptr %11, i64 16
  store i32 1, ptr %30, align 8, !tbaa !183
  %31 = getelementptr inbounds nuw i8, ptr %11, i64 8
  store ptr @hash_format_check_report, ptr %31, align 8, !tbaa !188
  %32 = load ptr, ptr @the_repository, align 8, !tbaa !9
  %33 = getelementptr inbounds nuw i8, ptr %32, i64 400
  %34 = load ptr, ptr %33, align 8, !tbaa !12
  %35 = getelementptr inbounds nuw i8, ptr %34, i64 96
  %36 = load ptr, ptr %35, align 8, !tbaa !32
  %37 = call i32 @fsck_buffer(ptr noundef %36, i32 noundef %spec.store.select, ptr noundef %.0, i64 noundef %.024, ptr noundef nonnull %11) #27
  %.not28 = icmp eq i32 %37, 0
  br i1 %.not28, label %40, label %38

38:                                               ; preds = %29
  %39 = call fastcc ptr @_(ptr noundef nonnull @.str.102)
  call void (ptr, ...) @die(ptr noundef %39) #26
  unreachable

40:                                               ; preds = %29
  %41 = call i32 @fsck_finish(ptr noundef nonnull %11) #27
  call void @llvm.lifetime.end.p0(i64 240, ptr nonnull %11) #27
  br label %42

42:                                               ; preds = %40, %27
  %.not29 = icmp eq i32 %12, 0
  br i1 %.not29, label %45, label %43

43:                                               ; preds = %42
  %44 = call i32 @write_object_file_flags(ptr noundef %.0, i64 noundef %.024, i32 noundef %spec.store.select, ptr noundef %1, ptr noundef null, i32 noundef 0)
  br label %60

45:                                               ; preds = %42
  %46 = load ptr, ptr @the_repository, align 8, !tbaa !9
  %47 = getelementptr inbounds nuw i8, ptr %46, i64 400
  %48 = load ptr, ptr %47, align 8, !tbaa !12
  %49 = call ptr @type_name(i32 noundef %spec.store.select) #27
  call void @llvm.lifetime.start.p0(i64 32, ptr nonnull %9) #27
  call void @llvm.lifetime.start.p0(i64 2400, ptr nonnull %8) #27
  %50 = call i32 (ptr, i64, ptr, ...) @xsnprintf(ptr noundef nonnull %9, i64 noundef 32, ptr noundef nonnull @.str.76, ptr noundef %49, i64 noundef %.024) #27
  %51 = add nsw i32 %50, 1
  %52 = getelementptr inbounds nuw i8, ptr %48, i64 40
  %53 = load ptr, ptr %52, align 8, !tbaa !100
  call void %53(ptr noundef nonnull %8) #27
  %54 = getelementptr inbounds nuw i8, ptr %48, i64 56
  %55 = load ptr, ptr %54, align 8, !tbaa !101
  %56 = sext i32 %51 to i64
  call void %55(ptr noundef nonnull %8, ptr noundef nonnull %9, i64 noundef %56) #27
  %57 = load ptr, ptr %54, align 8, !tbaa !101
  call void %57(ptr noundef nonnull %8, ptr noundef %.0, i64 noundef %.024) #27
  %58 = getelementptr inbounds nuw i8, ptr %48, i64 72
  %59 = load ptr, ptr %58, align 8, !tbaa !102
  call void %59(ptr noundef %1, ptr noundef nonnull %8) #27
  call void @llvm.lifetime.end.p0(i64 2400, ptr nonnull %8) #27
  call void @llvm.lifetime.end.p0(i64 32, ptr nonnull %9) #27
  br label %60

60:                                               ; preds = %45, %43
  %.023 = phi i32 [ %44, %43 ], [ 0, %45 ]
  call void @strbuf_release(ptr noundef nonnull %10) #27
  call void @llvm.lifetime.end.p0(i64 24, ptr nonnull %10) #27
  ret i32 %.023
}